target datalayout = "e-m:e-p270:32:32-p271:32:32-p272:64:64-i64:64-i128:128-f80:128-n8:16:32:64-S128"
target triple = "x86_64-pc-linux-gnu"

%"class.std::__cxx11::basic_string" = type { %"struct.std::__cxx11::basic_string<char>::_Alloc_hider", i64, %union.anon }
%"struct.std::__cxx11::basic_string<char>::_Alloc_hider" = type { ptr }
%union.anon = type { i64, [8 x i8] }
%"class.std::recursive_mutex" = type { %"class.std::__recursive_mutex_base" }
%"class.std::__recursive_mutex_base" = type { %union.pthread_mutex_t }
%union.pthread_mutex_t = type { %struct.__pthread_mutex_s }
%struct.__pthread_mutex_s = type { i32, i32, i32, i32, i32, i16, i16, %struct.__pthread_internal_list }
%struct.__pthread_internal_list = type { ptr, ptr }
%"class.cv::instr::NodeData" = type <{ %"class.std::__cxx11::basic_string", i32, i32, ptr, i32, [4 x i8], ptr, i8, i8, [2 x i8], i32, i64, %"class.cv::TLSDataAccumulator", i32, [4 x i8] }>
%"class.cv::TLSDataAccumulator" = type <{ %"class.cv::TLSData.base.21", [4 x i8], %"class.std::recursive_mutex", %"class.std::vector.22", %"class.std::vector.22", i8, [7 x i8] }>
%"class.cv::TLSData.base.21" = type { %"class.cv::TLSDataContainer.base" }
%"class.cv::TLSDataContainer.base" = type <{ ptr, i32 }>
%"class.std::vector.22" = type { %"struct.std::_Vector_base.23" }
%"struct.std::_Vector_base.23" = type { %"struct.std::_Vector_base<cv::instr::NodeDataTls *, std::allocator<cv::instr::NodeDataTls *>>::_Vector_impl" }
%"struct.std::_Vector_base<cv::instr::NodeDataTls *, std::allocator<cv::instr::NodeDataTls *>>::_Vector_impl" = type { %"struct.std::_Vector_base<cv::instr::NodeDataTls *, std::allocator<cv::instr::NodeDataTls *>>::_Vector_impl_data" }
%"struct.std::_Vector_base<cv::instr::NodeDataTls *, std::allocator<cv::instr::NodeDataTls *>>::_Vector_impl_data" = type { ptr, ptr, ptr }

; Function Attrs: mustprogress nounwind uwtable
define available_externally noundef ptr @_ZNKSt7__cxx1112basic_stringIcSt11char_traitsIcESaIcEE7_M_dataEv(ptr noundef nonnull align 8 dereferenceable(32) %0) #5 align 2 {
  %2 = alloca ptr, align 8
  store ptr %0, ptr %2, align 8, !tbaa !27
  %3 = load ptr, ptr %2, align 8
  %4 = getelementptr inbounds nuw %"class.std::__cxx11::basic_string", ptr %3, i32 0, i32 0
  %5 = getelementptr inbounds nuw %"struct.std::__cxx11::basic_string<char>::_Alloc_hider", ptr %4, i32 0, i32 0
  %6 = load ptr, ptr %5, align 8, !tbaa !213
  ret ptr %6
}

; Function Attrs: noinline noreturn nounwind uwtable
define linkonce_odr hidden void @__clang_call_terminate(ptr noundef %0) #17 comdat {
  %2 = call ptr @__cxa_begin_catch(ptr %0) #3
  call void @_ZSt9terminatev() #30
  unreachable
}

; Function Attrs: mustprogress nounwind uwtable
define linkonce_odr hidden noundef i32 @_ZNSt11char_traitsIcE7compareEPKcS2_m(ptr noundef %0, ptr noundef %1, i64 noundef %2) #5 comdat align 2 {
  %4 = alloca i32, align 4
  %5 = alloca ptr, align 8
  %6 = alloca ptr, align 8
  %7 = alloca i64, align 8
  store ptr %0, ptr %5, align 8, !tbaa !10
  store ptr %1, ptr %6, align 8, !tbaa !10
  store i64 %2, ptr %7, align 8, !tbaa !12
  %8 = load i64, ptr %7, align 8, !tbaa !12
  %9 = icmp eq i64 %8, 0
  br i1 %9, label %10, label %11

10:                                               ; preds = %3
  store i32 0, ptr %4, align 4
  br label %16

11:                                               ; preds = %3
  %12 = load ptr, ptr %5, align 8, !tbaa !10
  %13 = load ptr, ptr %6, align 8, !tbaa !10
  %14 = load i64, ptr %7, align 8, !tbaa !12
  %15 = call i32 @memcmp(ptr noundef %12, ptr noundef %13, i64 noundef %14) #3
  store i32 %15, ptr %4, align 4
  br label %16

16:                                               ; preds = %11, %10
  %17 = load i32, ptr %4, align 4
  ret i32 %17
}

; Function Attrs: mustprogress nounwind uwtable
define available_externally noundef ptr @_ZNKSt7__cxx1112basic_stringIcSt11char_traitsIcESaIcEE4dataEv(ptr noundef nonnull align 8 dereferenceable(32) %0) #5 align 2 {
  %2 = alloca ptr, align 8
  store ptr %0, ptr %2, align 8, !tbaa !27
  %3 = load ptr, ptr %2, align 8
  %4 = call noundef ptr @_ZNKSt7__cxx1112basic_stringIcSt11char_traitsIcESaIcEE7_M_dataEv(ptr noundef nonnull align 8 dereferenceable(32) %3)
  ret ptr %4
}

; Function Attrs: mustprogress nounwind uwtable
define available_externally noundef i64 @_ZNKSt7__cxx1112basic_stringIcSt11char_traitsIcESaIcEE4sizeEv(ptr noundef nonnull align 8 dereferenceable(32) %0) #5 align 2 {
  %2 = alloca ptr, align 8
  store ptr %0, ptr %2, align 8, !tbaa !27
  %3 = load ptr, ptr %2, align 8
  %4 = getelementptr inbounds nuw %"class.std::__cxx11::basic_string", ptr %3, i32 0, i32 1
  %5 = load i64, ptr %4, align 8, !tbaa !40
  ret i64 %5
}

; Function Attrs: mustprogress nounwind uwtable
define noundef i32 @_ZN2cv5instr8getFlagsEv() #5 {
  ret i32 0
}

; Function Attrs: inlinehint mustprogress nounwind uwtable
define linkonce_odr noundef zeroext i1 @_ZSteqIcEN9__gnu_cxx11__enable_ifIXsr9__is_charIT_EE7__valueEbE6__typeERKNSt7__cxx1112basic_stringIS2_St11char_traitsIS2_ESaIS2_EEESC_(ptr noundef nonnull align 8 dereferenceable(32) %0, ptr noundef nonnull align 8 dereferenceable(32) %1) #13 comdat personality ptr @__gxx_personality_v0 {
  %3 = alloca ptr, align 8
  %4 = alloca ptr, align 8
  store ptr %0, ptr %3, align 8, !tbaa !27
  store ptr %1, ptr %4, align 8, !tbaa !27
  %5 = load ptr, ptr %3, align 8, !tbaa !27
  %6 = call noundef i64 @_ZNKSt7__cxx1112basic_stringIcSt11char_traitsIcESaIcEE4sizeEv(ptr noundef nonnull align 8 dereferenceable(32) %5) #3
  %7 = load ptr, ptr %4, align 8, !tbaa !27
  %8 = call noundef i64 @_ZNKSt7__cxx1112basic_stringIcSt11char_traitsIcESaIcEE4sizeEv(ptr noundef nonnull align 8 dereferenceable(32) %7) #3
  %9 = icmp eq i64 %6, %8
  br i1 %9, label %10, label %21

10:                                               ; preds = %2
  %11 = load ptr, ptr %3, align 8, !tbaa !27
  %12 = call noundef ptr @_ZNKSt7__cxx1112basic_stringIcSt11char_traitsIcESaIcEE4dataEv(ptr noundef nonnull align 8 dereferenceable(32) %11) #3
  %13 = load ptr, ptr %4, align 8, !tbaa !27
  %14 = call noundef ptr @_ZNKSt7__cxx1112basic_stringIcSt11char_traitsIcESaIcEE4dataEv(ptr noundef nonnull align 8 dereferenceable(32) %13) #3
  %15 = load ptr, ptr %3, align 8, !tbaa !27
  %16 = call noundef i64 @_ZNKSt7__cxx1112basic_stringIcSt11char_traitsIcESaIcEE4sizeEv(ptr noundef nonnull align 8 dereferenceable(32) %15) #3
  %17 = invoke noundef i32 @_ZNSt11char_traitsIcE7compareEPKcS2_m(ptr noundef %12, ptr noundef %14, i64 noundef %16)
          to label %18 unwind label %23

18:                                               ; preds = %10
  %19 = icmp ne i32 %17, 0
  %20 = xor i1 %19, true
  br label %21

21:                                               ; preds = %18, %2
  %22 = phi i1 [ false, %2 ], [ %20, %18 ]
  ret i1 %22

23:                                               ; preds = %10
  %24 = landingpad { ptr, i32 }
          catch ptr null
  %25 = extractvalue { ptr, i32 } %24, 0
  call void @__clang_call_terminate(ptr %25) #30
  unreachable
}

; Function Attrs: mustprogress nounwind uwtable
define hidden noundef zeroext i1 @_ZN2cv5instreqERKNS0_8NodeDataES3_(ptr noundef nonnull align 8 dereferenceable(196) %0, ptr noundef nonnull align 8 dereferenceable(196) %1) #5 {
  %3 = alloca i1, align 1
  %4 = alloca ptr, align 8
  %5 = alloca ptr, align 8
  store ptr %0, ptr %4, align 8, !tbaa !162
  store ptr %1, ptr %5, align 8, !tbaa !162
  %6 = load ptr, ptr %4, align 8, !tbaa !162
  %7 = getelementptr inbounds nuw %"class.cv::instr::NodeData", ptr %6, i32 0, i32 4
  %8 = load i32, ptr %7, align 8, !tbaa !179
  %9 = load ptr, ptr %5, align 8, !tbaa !162
  %10 = getelementptr inbounds nuw %"class.cv::instr::NodeData", ptr %9, i32 0, i32 4
  %11 = load i32, ptr %10, align 8, !tbaa !179
  %12 = icmp eq i32 %8, %11
  br i1 %12, label %13, label %46

13:                                               ; preds = %2
  %14 = load ptr, ptr %4, align 8, !tbaa !162
  %15 = getelementptr inbounds nuw %"class.cv::instr::NodeData", ptr %14, i32 0, i32 0
  %16 = load ptr, ptr %5, align 8, !tbaa !162
  %17 = getelementptr inbounds nuw %"class.cv::instr::NodeData", ptr %16, i32 0, i32 0
  %18 = call noundef zeroext i1 @_ZSteqIcEN9__gnu_cxx11__enable_ifIXsr9__is_charIT_EE7__valueEbE6__typeERKNSt7__cxx1112basic_stringIS2_St11char_traitsIS2_ESaIS2_EEESC_(ptr noundef nonnull align 8 dereferenceable(32) %15, ptr noundef nonnull align 8 dereferenceable(32) %17) #3
  br i1 %18, label %19, label %46

19:                                               ; preds = %13
  %20 = load ptr, ptr %4, align 8, !tbaa !162
  %21 = getelementptr inbounds nuw %"class.cv::instr::NodeData", ptr %20, i32 0, i32 3
  %22 = load ptr, ptr %21, align 8, !tbaa !178
  %23 = load ptr, ptr %5, align 8, !tbaa !162
  %24 = getelementptr inbounds nuw %"class.cv::instr::NodeData", ptr %23, i32 0, i32 3
  %25 = load ptr, ptr %24, align 8, !tbaa !178
  %26 = icmp eq ptr %22, %25
  br i1 %26, label %27, label %46

27:                                               ; preds = %19
  %28 = load ptr, ptr %4, align 8, !tbaa !162
  %29 = getelementptr inbounds nuw %"class.cv::instr::NodeData", ptr %28, i32 0, i32 6
  %30 = load ptr, ptr %29, align 8, !tbaa !180
  %31 = load ptr, ptr %5, align 8, !tbaa !162
  %32 = getelementptr inbounds nuw %"class.cv::instr::NodeData", ptr %31, i32 0, i32 6
  %33 = load ptr, ptr %32, align 8, !tbaa !180
  %34 = icmp eq ptr %30, %33
  br i1 %34, label %44, label %35

35:                                               ; preds = %27
  %36 = call noundef i32 @_ZN2cv5instr8getFlagsEv()
  %37 = and i32 %36, 2
  %38 = icmp ne i32 %37, 0
  br i1 %38, label %45, label %39

39:                                               ; preds = %35
  %40 = load ptr, ptr %4, align 8, !tbaa !162
  %41 = getelementptr inbounds nuw %"class.cv::instr::NodeData", ptr %40, i32 0, i32 7
  %42 = load i8, ptr %41, align 8, !tbaa !181, !range !30, !noundef !31
  %43 = trunc i8 %42 to i1
  br i1 %43, label %45, label %44

44:                                               ; preds = %39, %27
  store i1 true, ptr %3, align 1
  br label %47

45:                                               ; preds = %39, %35
  br label %46

46:                                               ; preds = %45, %19, %13, %2
  store i1 false, ptr %3, align 1
  br label %47

47:                                               ; preds = %46, %44
  %48 = load i1, ptr %3, align 1
  ret i1 %48
}